; Function Attrs: nounwind uwtable
define internal ptr @unicode_isidentifier(ptr readnone captures(none) %0, ptr noundef %1) #0 {
  %3 = tail call ptr @Py_GetConstantBorrowed(i32 noundef 0) #4
  %4 = icmp eq ptr %1, %3
  %spec.select = select i1 %4, ptr null, ptr %1
  %5 = tail call i32 @PyUnicode_IsIdentifier(ptr noundef %spec.select) #4
  %6 = icmp eq i32 %5, -1
  %7 = tail call ptr @PyErr_Occurred() #4
  %.not7 = icmp eq ptr %7, null
  br i1 %6, label %8, label %10

8:                                                ; preds = %2
  br i1 %.not7, label %9, label %15

9:                                                ; preds = %8
  tail call void @__assert_fail(ptr noundef nonnull @.str.367, ptr noundef nonnull @.str.360, i32 noundef 1392, ptr noundef nonnull @__PRETTY_FUNCTION__.unicode_isidentifier) #5
  unreachable

10:                                               ; preds = %2
  br i1 %.not7, label %12, label %11

11:                                               ; preds = %10
  tail call void @__assert_fail(ptr noundef nonnull @.str.368, ptr noundef nonnull @.str.360, i32 noundef 1392, ptr noundef nonnull @__PRETTY_FUNCTION__.unicode_isidentifier) #5
  unreachable

12:                                               ; preds = %10
  %13 = sext i32 %5 to i64
  %14 = tail call ptr @PyLong_FromLong(i64 noundef %13) #4
  br label %15

15:                                               ; preds = %8, %12
  %.0 = phi ptr [ %14, %12 ], [ null, %8 ]
  ret ptr %.0
}